target datalayout = "e-m:e-p270:32:32-p271:32:32-p272:64:64-i64:64-i128:128-f80:128-n8:16:32:64-S128"
target triple = "x86_64-pc-linux-gnu"

%struct.job_state_args_t = type { i32, ptr, i32 }
%struct.slurm_selected_step_t = type { ptr, i32, i32, %struct.slurm_step_id_msg }
%struct.slurm_step_id_msg = type { i64, i32, i32, i32 }
%struct.job_step = type { i32, %struct.slurm_step_id_msg }

; Function Attrs: nounwind uwtable
define internal i32 @_foreach_add_job(ptr noundef %0, ptr noundef %1) #0 {
  %3 = alloca ptr, align 8
  %4 = alloca ptr, align 8
  %5 = alloca ptr, align 8
  %6 = alloca ptr, align 8
  %7 = alloca ptr, align 8
  %8 = alloca %struct.slurm_selected_step_t, align 8
  store ptr %0, ptr %3, align 8
  store ptr %1, ptr %4, align 8
  call void @llvm.lifetime.start.p0(i64 8, ptr %5) #10
  %9 = load ptr, ptr %4, align 8
  store ptr %9, ptr %5, align 8
  call void @llvm.lifetime.start.p0(i64 8, ptr %6) #10
  %10 = load ptr, ptr %3, align 8
  store ptr %10, ptr %6, align 8
  call void @llvm.lifetime.start.p0(i64 8, ptr %7) #10
  %11 = load ptr, ptr %5, align 8
  %12 = getelementptr inbounds nuw %struct.job_state_args_t, ptr %11, i32 0, i32 1
  %13 = load ptr, ptr %12, align 8
  %14 = load ptr, ptr %5, align 8
  %15 = getelementptr inbounds nuw %struct.job_state_args_t, ptr %14, i32 0, i32 2
  %16 = load i32, ptr %15, align 8
  %17 = sext i32 %16 to i64
  %18 = getelementptr inbounds %struct.slurm_selected_step_t, ptr %13, i64 %17
  store ptr %18, ptr %7, align 8
  %19 = load ptr, ptr %7, align 8
  %20 = getelementptr inbounds nuw %struct.slurm_selected_step_t, ptr %8, i32 0, i32 0
  store ptr null, ptr %20, align 8
  %21 = getelementptr inbounds nuw %struct.slurm_selected_step_t, ptr %8, i32 0, i32 1
  store i32 -2, ptr %21, align 8
  %22 = getelementptr inbounds nuw %struct.slurm_selected_step_t, ptr %8, i32 0, i32 2
  store i32 -2, ptr %22, align 4
  %23 = getelementptr inbounds nuw %struct.slurm_selected_step_t, ptr %8, i32 0, i32 3
  %24 = getelementptr inbounds nuw %struct.slurm_step_id_msg, ptr %23, i32 0, i32 0
  store i64 4294967294, ptr %24, align 8
  %25 = getelementptr inbounds nuw %struct.slurm_step_id_msg, ptr %23, i32 0, i32 1
  store i32 -2, ptr %25, align 8
  %26 = getelementptr inbounds nuw %struct.slurm_step_id_msg, ptr %23, i32 0, i32 2
  store i32 -2, ptr %26, align 4
  %27 = getelementptr inbounds nuw %struct.slurm_step_id_msg, ptr %23, i32 0, i32 3
  store i32 0, ptr %27, align 8
  %28 = getelementptr i8, ptr %23, i64 20
  call void @llvm.memset.p0.i64(ptr align 4 %28, i8 0, i64 4, i1 false)
  call void @llvm.memcpy.p0.p0.i64(ptr align 8 %19, ptr align 8 %8, i64 40, i1 false)
  %29 = load ptr, ptr %6, align 8
  %30 = getelementptr inbounds nuw %struct.job_step, ptr %29, i32 0, i32 0
  %31 = load i32, ptr %30, align 8
  %32 = load ptr, ptr %7, align 8
  %33 = getelementptr inbounds nuw %struct.slurm_selected_step_t, ptr %32, i32 0, i32 1
  store i32 %31, ptr %33, align 8
  %34 = load ptr, ptr %7, align 8
  %35 = getelementptr inbounds nuw %struct.slurm_selected_step_t, ptr %34, i32 0, i32 3
  %36 = load ptr, ptr %6, align 8
  %37 = getelementptr inbounds nuw %struct.job_step, ptr %36, i32 0, i32 1
  call void @llvm.memcpy.p0.p0.i64(ptr align 8 %35, ptr align 8 %37, i64 24, i1 false)
  %38 = load ptr, ptr %5, align 8
  %39 = getelementptr inbounds nuw %struct.job_state_args_t, ptr %38, i32 0, i32 2
  %40 = load i32, ptr %39, align 8
  %41 = add nsw i32 %40, 1
  store i32 %41, ptr %39, align 8
  call void @llvm.lifetime.end.p0(i64 8, ptr %7) #10
  call void @llvm.lifetime.end.p0(i64 8, ptr %6) #10
  call void @llvm.lifetime.end.p0(i64 8, ptr %5) #10
  ret i32 0
}