; Function Attrs: mustprogress nofree norecurse nosync nounwind willreturn memory(readwrite, inaccessiblemem: none) uwtable
define internal noundef i32 @_foreach_add_job(ptr noundef readonly captures(none) %0, ptr noundef captures(none) %1) #9 {
  %3 = getelementptr inbounds nuw i8, ptr %1, i64 8
  %4 = load ptr, ptr %3, align 8
  %5 = getelementptr inbounds nuw i8, ptr %1, i64 16
  %6 = load i32, ptr %5, align 8
  %7 = sext i32 %6 to i64
  %8 = getelementptr inbounds %struct.slurm_selected_step_t, ptr %4, i64 %7
  store ptr null, ptr %8, align 8
  %.sroa.2.0..sroa_idx = getelementptr inbounds nuw i8, ptr %8, i64 8
  store i32 -2, ptr %.sroa.2.0..sroa_idx, align 8
  %.sroa.3.0..sroa_idx = getelementptr inbounds nuw i8, ptr %8, i64 12
  store i32 -2, ptr %.sroa.3.0..sroa_idx, align 4
  %.sroa.4.0..sroa_idx = getelementptr inbounds nuw i8, ptr %8, i64 16
  store i64 4294967294, ptr %.sroa.4.0..sroa_idx, align 8
  %.sroa.5.0..sroa_idx = getelementptr inbounds nuw i8, ptr %8, i64 24
  store i32 -2, ptr %.sroa.5.0..sroa_idx, align 8
  %.sroa.6.0..sroa_idx = getelementptr inbounds nuw i8, ptr %8, i64 28
  store i32 -2, ptr %.sroa.6.0..sroa_idx, align 4
  %.sroa.7.0..sroa_idx = getelementptr inbounds nuw i8, ptr %8, i64 32
  store i32 0, ptr %.sroa.7.0..sroa_idx, align 8
  %.sroa.8.0..sroa_idx = getelementptr inbounds nuw i8, ptr %8, i64 36
  store i32 0, ptr %.sroa.8.0..sroa_idx, align 4
  %9 = load i32, ptr %0, align 8
  store i32 %9, ptr %.sroa.2.0..sroa_idx, align 8
  %10 = getelementptr inbounds nuw i8, ptr %0, i64 8
  tail call void @llvm.memcpy.p0.p0.i64(ptr noundef nonnull align 8 dereferenceable(24) %.sroa.4.0..sroa_idx, ptr noundef nonnull align 8 dereferenceable(24) %10, i64 24, i1 false)
  %11 = load i32, ptr %5, align 8
  %12 = add nsw i32 %11, 1
  store i32 %12, ptr %5, align 8
  ret i32 0
}